; Function Attrs: nofree norecurse nosync nounwind memory(read, inaccessiblemem: none) uwtable
define range(i32 -1, 2) i32 @Abc_NtkMiterIsConstant(ptr noundef readonly captures(none) %0) local_unnamed_addr #4 {
  %2 = getelementptr i8, ptr %0, i64 48
  %.val = load ptr, ptr %2, align 8, !tbaa !43
  %3 = getelementptr i8, ptr %.val, i64 4
  %.val.val = load i32, ptr %3, align 4, !tbaa !26
  %4 = icmp sgt i32 %.val.val, 0
  br i1 %4, label %.lr.ph, label %.critedge

.lr.ph:                                           ; preds = %1
  %5 = getelementptr i8, ptr %.val, i64 8
  %.val10.val = load ptr, ptr %5, align 8, !tbaa !28
  %wide.trip.count = zext nneg i32 %.val.val to i64
  br label %7

6:                                                ; preds = %22
  %indvars.iv.next = add nuw nsw i64 %indvars.iv, 1
  %exitcond.not = icmp eq i64 %indvars.iv.next, %wide.trip.count
  br i1 %exitcond.not, label %.critedge, label %7, !llvm.loop !66

7:                                                ; preds = %.lr.ph, %6
  %indvars.iv = phi i64 [ 0, %.lr.ph ], [ %indvars.iv.next, %6 ]
  %8 = getelementptr inbounds nuw ptr, ptr %.val10.val, i64 %indvars.iv
  %9 = load ptr, ptr %8, align 8, !tbaa !29
  %.val.i = load ptr, ptr %9, align 8, !tbaa !34
  %10 = getelementptr i8, ptr %9, i64 32
  %.val2.i = load ptr, ptr %10, align 8, !tbaa !35
  %11 = getelementptr i8, ptr %.val.i, i64 32
  %.val.val.i = load ptr, ptr %11, align 8, !tbaa !25
  %.val2.val.i = load i32, ptr %.val2.i, align 4, !tbaa !36
  %12 = getelementptr i8, ptr %.val.val.i, i64 8
  %.val.val.val.i = load ptr, ptr %12, align 8, !tbaa !28
  %13 = sext i32 %.val2.val.i to i64
  %14 = getelementptr inbounds ptr, ptr %.val.val.val.i, i64 %13
  %15 = load ptr, ptr %14, align 8, !tbaa !29
  %16 = ptrtoint ptr %15 to i64
  %17 = and i64 %16, -2
  %18 = inttoptr i64 %17 to ptr
  %19 = getelementptr inbounds nuw i8, ptr %18, i64 20
  %20 = load i32, ptr %19, align 4
  %21 = and i32 %20, 15
  %.not = icmp eq i32 %21, 1
  br i1 %.not, label %22, label %.critedge

22:                                               ; preds = %7
  %23 = getelementptr i8, ptr %9, i64 20
  %.val3.i = load i32, ptr %23, align 4
  %24 = lshr i32 %.val3.i, 10
  %25 = trunc i64 %16 to i32
  %26 = xor i32 %24, %25
  %27 = and i32 %26, 1
  %.not9 = icmp eq i32 %27, 0
  br i1 %.not9, label %.critedge, label %6

.critedge:                                        ; preds = %22, %7, %6, %1
  %.08 = phi i32 [ 1, %1 ], [ 1, %6 ], [ -1, %7 ], [ 0, %22 ]
  ret i32 %.08
}